target datalayout = "e-m:e-p270:32:32-p271:32:32-p272:64:64-i64:64-i128:128-f80:128-n8:16:32:64-S128"
target triple = "x86_64-unknown-linux-gnu"

%struct.cpuinfo_x86 = type { i8, i8, i8, i8, i32, [5 x i32], i8, i8, i8, i32, i32, %union.anon, [16 x i8], [64 x i8], %struct.cpuinfo_topology, i32, i32, i32, i32, i32, i32, i64, i64, i16, i16, i16, i16, i8, i32, i8, i8 }
%union.anon = type { i64, [88 x i8] }
%struct.cpuinfo_topology = type { i32, i32, i32, i32, i32, i32, i32, i32, i32, i32 }

@boot_cpu_data = external dso_local local_unnamed_addr global %struct.cpuinfo_x86, align 8

; Function Attrs: fn_ret_thunk_extern nounwind null_pointer_is_valid
define dso_local zeroext i1 @copy_from_kernel_nofault_allowed(ptr noundef %0, i64 noundef %1) local_unnamed_addr #0 align 16 {
  %3 = ptrtoint ptr %0 to i64
  %4 = tail call i64 asm sideeffect "# ALT: oldnstr\0A661:\0A\09movq $2,$0\0A662:\0A# ALT: padding\0A.skip -(((6651f-6641f)-(662b-661b)) > 0) * ((6651f-6641f)-(662b-661b)),0x90\0A663:\0A.pushsection .altinstructions,\22a\22\0A .long 661b - .\0A .long 6641f - .\0A .4byte (16*32+16)\0A .byte 663b-661b\0A .byte 6651f-6641f\0A.popsection\0A.pushsection .altinstr_replacement, \22ax\22\0A# ALT: replacement 1\0A6641:\0A\09movq $3,$0\0A6651:\0A.popsection\0A", "=r,i,i,i,~{dirflag},~{fpsr},~{flags}"(i32 0, i64 140737488351232, i64 72057594037923840) #1, !srcloc !5
  %5 = add i64 %4, 4096
  %6 = icmp ugt i64 %5, %3
  %7 = and i64 %3, -4096
  %8 = icmp eq i64 %7, -10485760
  %9 = or i1 %8, %6
  br i1 %9, label %20, label %10

10:                                               ; preds = %2
  %11 = load i8, ptr getelementptr inbounds (%struct.cpuinfo_x86, ptr @boot_cpu_data, i64 0, i32 6), align 4
  %12 = icmp eq i8 %11, 0
  br i1 %12, label %20, label %13

13:                                               ; preds = %10
  %14 = zext i8 %11 to i64
  %15 = sub nsw i64 64, %14
  %16 = and i64 %15, 4294967295
  %17 = shl i64 %3, %16
  %18 = ashr exact i64 %17, %16
  %19 = icmp eq i64 %18, %3
  br label %20

20:                                               ; preds = %13, %10, %2
  %21 = phi i1 [ %19, %13 ], [ false, %2 ], [ true, %10 ]
  ret i1 %21
}


!llvm.module.flags = !{!0, !1, !2, !3, !4}

!0 = !{i32 1, !"wchar_size", i32 2}
!1 = !{i32 8, !"cf-protection-branch", i32 1}
!2 = !{i32 4, !"function_return_thunk_extern", i32 1}
!3 = !{i32 4, !"indirect_branch_cs_prefix", i32 1}
!4 = !{i32 4, !"SkipRaxSetup", i32 1}
!5 = !{i64 2148278823, i64 2148278851, i64 2148278857, i64 2148278873, i64 2148278889, i64 2148278916, i64 2148279246, i64 2148278561, i64 2148279252, i64 2148279300, i64 2148279364, i64 2148279428, i64 2148279485, i64 2148278642, i64 2148278667, i64 2148279692, i64 2148279824, i64 2148279753, i64 2148279838, i64 2148278759}
